target datalayout = "e-m:e-p270:32:32-p271:32:32-p272:64:64-i64:64-i128:128-f80:128-n8:16:32:64-S128"
target triple = "x86_64-pc-linux-gnu"

%struct.cli_ctx_tag = type { ptr, ptr, ptr, ptr, ptr, ptr, ptr, i64, ptr, i32, i32, ptr, i32, i32, ptr, [16 x i8], ptr, ptr, ptr, ptr, ptr, ptr, %struct.timeval, i8, i8 }
%struct.timeval = type { i64, i64 }
%struct.cl_fmap = type { ptr, ptr, ptr, i64, i64, i64, i64, i8, i8, i8, i64, i64, i64, i64, ptr, ptr, ptr, ptr, ptr, ptr, ptr, i8, [16 x i8], i8, [20 x i8], i8, [32 x i8], ptr, ptr }
%struct.cl_engine = type { i32, i32, i32, [2 x i32], i32, i32, i32, ptr, i32, i64, i32, i32, i64, i64, i32, i32, i32, i32, ptr, ptr, ptr, ptr, ptr, ptr, ptr, ptr, ptr, ptr, ptr, ptr, ptr, ptr, ptr, ptr, ptr, ptr, ptr, i64, ptr, %struct.crtmgr, ptr, ptr, ptr, ptr, ptr, ptr, ptr, ptr, ptr, ptr, ptr, ptr, ptr, ptr, ptr, ptr, ptr, %struct.cli_all_bc, [7 x ptr], [7 x i32], i32, i32, i32, i32, i64, i64, i64, i64, i64, ptr, ptr, ptr, ptr, ptr, ptr, ptr, ptr, ptr, i32, i32, i32, i64, i64, i64, ptr }
%struct.crtmgr = type { ptr, i32 }
%struct.cli_all_bc = type { ptr, i32, ptr, %struct.cli_environment, i32 }
%struct.cli_environment = type { i32, i32, i32, i32, i32, i32, i32, [65 x i8], [65 x i8], [65 x i8], [65 x i8], [65 x i8], [65 x i8], [65 x i8], i8, i8, i8, i8, i8, i8, i8, i8, i8 }
%struct.cli_ac_data = type { ptr, i32, i32, i32, ptr, ptr, ptr, ptr, ptr, ptr, [32 x i32], ptr, i32 }
%struct.cli_matcher = type { i32, ptr, ptr, ptr, ptr, i32, i32, i32, i32, i32, %struct.cli_hash_patt, %struct.cli_hash_wild, i32, i32, i32, i32, i32, ptr, ptr, ptr, ptr, ptr, ptr, i32, i32, i8, i8, ptr, i16, i8, i32, ptr, i32, i32, i32, ptr, ptr, i32, ptr, i64, i64, ptr }
%struct.cli_hash_patt = type { [3 x %struct.cli_htu32] }
%struct.cli_htu32 = type { ptr, i64, i64, i64 }
%struct.cli_hash_wild = type { [3 x %struct.cli_sz_hash] }
%struct.cli_sz_hash = type { ptr, ptr, i32 }

@.str.53 = private unnamed_addr constant [22 x i8] c"Failed to scan fmap.\0A\00", align 1
@.str.263 = private unnamed_addr constant [87 x i8] c"Failed to create fmap for evaluating logical/yara rules after call to cli_scan_buff()\0A\00", align 1

; Function Attrs: nounwind uwtable
define internal void @funmap(ptr noundef %0) #0 {
  %2 = alloca ptr, align 8
  store ptr %0, ptr %2, align 8
  %3 = load ptr, ptr %2, align 8
  %4 = getelementptr inbounds %struct.cl_fmap, ptr %3, i32 0, i32 14
  %5 = load ptr, ptr %4, align 8
  %6 = load ptr, ptr %2, align 8
  call void %5(ptr noundef %6)
  ret void
}

; Function Attrs: nounwind uwtable
define internal i32 @vba_scandata(ptr noundef %0, i64 noundef %1, ptr noundef %2) #0 {
  %4 = alloca ptr, align 8
  %5 = alloca i64, align 8
  %6 = alloca ptr, align 8
  %7 = alloca i32, align 4
  %8 = alloca ptr, align 8
  %9 = alloca ptr, align 8
  %10 = alloca %struct.cli_ac_data, align 8
  %11 = alloca %struct.cli_ac_data, align 8
  %12 = alloca i8, align 1
  %13 = alloca i8, align 1
  %14 = alloca [2 x ptr], align 16
  %15 = alloca i8, align 1
  %16 = alloca ptr, align 8
  store ptr %0, ptr %4, align 8
  store i64 %1, ptr %5, align 8
  store ptr %2, ptr %6, align 8
  store i32 0, ptr %7, align 4
  %17 = load ptr, ptr %6, align 8
  %18 = getelementptr inbounds %struct.cli_ctx_tag, ptr %17, i32 0, i32 6
  %19 = load ptr, ptr %18, align 8
  %20 = getelementptr inbounds %struct.cl_engine, ptr %19, i32 0, i32 18
  %21 = load ptr, ptr %20, align 8
  %22 = getelementptr inbounds ptr, ptr %21, i64 0
  %23 = load ptr, ptr %22, align 8
  store ptr %23, ptr %8, align 8
  %24 = load ptr, ptr %6, align 8
  %25 = getelementptr inbounds %struct.cli_ctx_tag, ptr %24, i32 0, i32 6
  %26 = load ptr, ptr %25, align 8
  %27 = getelementptr inbounds %struct.cl_engine, ptr %26, i32 0, i32 18
  %28 = load ptr, ptr %27, align 8
  %29 = getelementptr inbounds ptr, ptr %28, i64 2
  %30 = load ptr, ptr %29, align 8
  store ptr %30, ptr %9, align 8
  store i8 0, ptr %12, align 1
  store i8 0, ptr %13, align 1
  store i8 0, ptr %15, align 1
  store ptr null, ptr %16, align 8
  %31 = load ptr, ptr %9, align 8
  %32 = getelementptr inbounds %struct.cli_matcher, ptr %31, i32 0, i32 12
  %33 = load i32, ptr %32, align 8
  %34 = load ptr, ptr %9, align 8
  %35 = getelementptr inbounds %struct.cli_matcher, ptr %34, i32 0, i32 16
  %36 = load i32, ptr %35, align 8
  %37 = load ptr, ptr %9, align 8
  %38 = getelementptr inbounds %struct.cli_matcher, ptr %37, i32 0, i32 23
  %39 = load i32, ptr %38, align 8
  %40 = call i32 @cli_ac_initdata(ptr noundef %11, i32 noundef %33, i32 noundef %36, i32 noundef %39, i8 noundef zeroext 8)
  store i32 %40, ptr %7, align 4
  %41 = icmp ne i32 %40, 0
  br i1 %41, label %42, label %43

42:                                               ; preds = %3
  br label %93

43:                                               ; preds = %3
  store i8 1, ptr %13, align 1
  %44 = load ptr, ptr %8, align 8
  %45 = getelementptr inbounds %struct.cli_matcher, ptr %44, i32 0, i32 12
  %46 = load i32, ptr %45, align 8
  %47 = load ptr, ptr %8, align 8
  %48 = getelementptr inbounds %struct.cli_matcher, ptr %47, i32 0, i32 16
  %49 = load i32, ptr %48, align 8
  %50 = load ptr, ptr %8, align 8
  %51 = getelementptr inbounds %struct.cli_matcher, ptr %50, i32 0, i32 23
  %52 = load i32, ptr %51, align 8
  %53 = call i32 @cli_ac_initdata(ptr noundef %10, i32 noundef %46, i32 noundef %49, i32 noundef %52, i8 noundef zeroext 8)
  store i32 %53, ptr %7, align 4
  %54 = icmp ne i32 %53, 0
  br i1 %54, label %55, label %56

55:                                               ; preds = %43
  br label %93

56:                                               ; preds = %43
  store i8 1, ptr %12, align 1
  %57 = getelementptr inbounds [2 x ptr], ptr %14, i64 0, i64 0
  store ptr %11, ptr %57, align 16
  %58 = getelementptr inbounds [2 x ptr], ptr %14, i64 0, i64 1
  store ptr %10, ptr %58, align 8
  %59 = load ptr, ptr %4, align 8
  %60 = load i64, ptr %5, align 8
  %61 = trunc i64 %60 to i32
  %62 = load ptr, ptr %6, align 8
  %63 = getelementptr inbounds [2 x ptr], ptr %14, i64 0, i64 0
  %64 = call i32 @cli_scan_buff(ptr noundef %59, i32 noundef %61, i32 noundef 0, ptr noundef %62, i32 noundef 522, ptr noundef %63)
  store i32 %64, ptr %7, align 4
  %65 = load i32, ptr %7, align 4
  %66 = icmp ne i32 0, %65
  br i1 %66, label %67, label %68

67:                                               ; preds = %56
  br label %93

68:                                               ; preds = %56
  %69 = load ptr, ptr %4, align 8
  %70 = load i64, ptr %5, align 8
  %71 = call ptr @fmap_open_memory(ptr noundef %69, i64 noundef %70, ptr noundef null)
  store ptr %71, ptr %16, align 8
  %72 = load ptr, ptr %16, align 8
  %73 = icmp eq ptr %72, null
  br i1 %73, label %74, label %75

74:                                               ; preds = %68
  call void (ptr, ...) @cli_dbgmsg(ptr noundef @.str.263)
  store i32 20, ptr %7, align 4
  br label %93

75:                                               ; preds = %68
  %76 = load ptr, ptr %6, align 8
  %77 = load ptr, ptr %16, align 8
  %78 = call i32 @cli_recursion_stack_push(ptr noundef %76, ptr noundef %77, i32 noundef 522, i1 noundef zeroext true, i32 noundef 0)
  store i32 %78, ptr %7, align 4
  %79 = load i32, ptr %7, align 4
  %80 = icmp ne i32 0, %79
  br i1 %80, label %81, label %82

81:                                               ; preds = %75
  call void (ptr, ...) @cli_dbgmsg(ptr noundef @.str.53)
  br label %93

82:                                               ; preds = %75
  store i8 1, ptr %15, align 1
  %83 = load ptr, ptr %6, align 8
  %84 = load ptr, ptr %9, align 8
  %85 = call i32 @cli_exp_eval(ptr noundef %83, ptr noundef %84, ptr noundef %11, ptr noundef null, ptr noundef null)
  store i32 %85, ptr %7, align 4
  %86 = load i32, ptr %7, align 4
  %87 = icmp ne i32 0, %86
  br i1 %87, label %88, label %89

88:                                               ; preds = %82
  br label %93

89:                                               ; preds = %82
  %90 = load ptr, ptr %6, align 8
  %91 = load ptr, ptr %8, align 8
  %92 = call i32 @cli_exp_eval(ptr noundef %90, ptr noundef %91, ptr noundef %10, ptr noundef null, ptr noundef null)
  store i32 %92, ptr %7, align 4
  br label %93

93:                                               ; preds = %89, %88, %81, %74, %67, %55, %42
  %94 = load i8, ptr %15, align 1
  %95 = trunc i8 %94 to i1
  br i1 %95, label %96, label %99

96:                                               ; preds = %93
  %97 = load ptr, ptr %6, align 8
  %98 = call ptr @cli_recursion_stack_pop(ptr noundef %97)
  br label %99

99:                                               ; preds = %96, %93
  %100 = load ptr, ptr %16, align 8
  %101 = icmp ne ptr null, %100
  br i1 %101, label %102, label %104

102:                                              ; preds = %99
  %103 = load ptr, ptr %16, align 8
  call void @funmap(ptr noundef %103)
  br label %104

104:                                              ; preds = %102, %99
  %105 = load i8, ptr %13, align 1
  %106 = trunc i8 %105 to i1
  br i1 %106, label %107, label %108

107:                                              ; preds = %104
  call void @cli_ac_freedata(ptr noundef %11)
  br label %108

108:                                              ; preds = %107, %104
  %109 = load i8, ptr %12, align 1
  %110 = trunc i8 %109 to i1
  br i1 %110, label %111, label %112

111:                                              ; preds = %108
  call void @cli_ac_freedata(ptr noundef %10)
  br label %112

112:                                              ; preds = %111, %108
  %113 = load i32, ptr %7, align 4
  ret i32 %113
}