; Function Attrs: nounwind uwtable
define internal fastcc i32 @vba_scandata(ptr noundef nonnull %0, i64 noundef %1, ptr noundef %2) unnamed_addr #0 {
  %4 = alloca %struct.cli_ac_data, align 8
  %5 = alloca %struct.cli_ac_data, align 8
  %6 = alloca [2 x ptr], align 16
  %7 = getelementptr inbounds nuw i8, ptr %2, i64 48
  %8 = load ptr, ptr %7, align 8
  %9 = getelementptr inbounds nuw i8, ptr %8, i64 96
  %10 = load ptr, ptr %9, align 8
  %11 = load ptr, ptr %10, align 8
  %12 = getelementptr inbounds nuw i8, ptr %10, i64 16
  %13 = load ptr, ptr %12, align 8
  %14 = getelementptr inbounds nuw i8, ptr %13, i64 232
  %15 = load i32, ptr %14, align 8
  %16 = getelementptr inbounds nuw i8, ptr %13, i64 248
  %17 = load i32, ptr %16, align 8
  %18 = getelementptr inbounds nuw i8, ptr %13, i64 304
  %19 = load i32, ptr %18, align 8
  %20 = call i32 @cli_ac_initdata(ptr noundef nonnull %5, i32 noundef %15, i32 noundef %17, i32 noundef %19, i8 noundef zeroext 8) #16
  %.not = icmp eq i32 %20, 0
  br i1 %.not, label %21, label %.thread78

21:                                               ; preds = %3
  %22 = getelementptr inbounds nuw i8, ptr %11, i64 232
  %23 = load i32, ptr %22, align 8
  %24 = getelementptr inbounds nuw i8, ptr %11, i64 248
  %25 = load i32, ptr %24, align 8
  %26 = getelementptr inbounds nuw i8, ptr %11, i64 304
  %27 = load i32, ptr %26, align 8
  %28 = call i32 @cli_ac_initdata(ptr noundef nonnull %4, i32 noundef %23, i32 noundef %25, i32 noundef %27, i8 noundef zeroext 8) #16
  %.not39 = icmp eq i32 %28, 0
  br i1 %.not39, label %29, label %.thread78.sink.split

29:                                               ; preds = %21
  store ptr %5, ptr %6, align 16
  %30 = getelementptr inbounds nuw i8, ptr %6, i64 8
  store ptr %4, ptr %30, align 8
  %31 = trunc i64 %1 to i32
  %32 = call i32 @cli_scan_buff(ptr noundef nonnull %0, i32 noundef %31, i32 noundef 0, ptr noundef nonnull %2, i32 noundef 522, ptr noundef nonnull %6) #16
  %.not40 = icmp eq i32 %32, 0
  br i1 %.not40, label %33, label %.thread87

33:                                               ; preds = %29
  %34 = call ptr @fmap_open_memory(ptr noundef nonnull %0, i64 noundef %1, ptr noundef null) #16
  %35 = icmp eq ptr %34, null
  br i1 %35, label %36, label %37

36:                                               ; preds = %33
  call void (ptr, ...) @cli_dbgmsg(ptr noundef nonnull @.str.263) #16
  br label %.thread87

37:                                               ; preds = %33
  %38 = call i32 @cli_recursion_stack_push(ptr noundef nonnull %2, ptr noundef nonnull %34, i32 noundef 522, i1 noundef zeroext true, i32 noundef 0) #16
  %.not41 = icmp eq i32 %38, 0
  br i1 %.not41, label %39, label %44

39:                                               ; preds = %37
  %40 = call i32 @cli_exp_eval(ptr noundef nonnull %2, ptr noundef nonnull %13, ptr noundef nonnull %5, ptr noundef null, ptr noundef null) #16
  %.not42 = icmp eq i32 %40, 0
  br i1 %.not42, label %41, label %.thread51

41:                                               ; preds = %39
  %42 = call i32 @cli_exp_eval(ptr noundef nonnull %2, ptr noundef nonnull %11, ptr noundef nonnull %4, ptr noundef null, ptr noundef null) #16
  br label %.thread51

.thread51:                                        ; preds = %39, %41
  %.032 = phi i32 [ %40, %39 ], [ %42, %41 ]
  %43 = call ptr @cli_recursion_stack_pop(ptr noundef nonnull %2) #16
  br label %.thread82

44:                                               ; preds = %37
  call void (ptr, ...) @cli_dbgmsg(ptr noundef nonnull @.str.53) #16
  br label %.thread82

.thread82:                                        ; preds = %44, %.thread51
  %.0324859 = phi i32 [ %.032, %.thread51 ], [ %38, %44 ]
  %45 = getelementptr inbounds nuw i8, ptr %34, i64 96
  %46 = load ptr, ptr %45, align 8
  call void %46(ptr noundef nonnull %34) #16
  br label %.thread87

.thread87:                                        ; preds = %29, %36, %.thread82
  %.03248607185 = phi i32 [ %.0324859, %.thread82 ], [ %32, %29 ], [ 20, %36 ]
  call void @cli_ac_freedata(ptr noundef nonnull %5) #16
  br label %.thread78.sink.split

.thread78.sink.split:                             ; preds = %21, %.thread87
  %.sink = phi ptr [ %4, %.thread87 ], [ %5, %21 ]
  %.03248607081.ph = phi i32 [ %.03248607185, %.thread87 ], [ %28, %21 ]
  call void @cli_ac_freedata(ptr noundef nonnull %.sink) #16
  br label %.thread78

.thread78:                                        ; preds = %.thread78.sink.split, %3
  %.03248607081 = phi i32 [ %20, %3 ], [ %.03248607081.ph, %.thread78.sink.split ]
  ret i32 %.03248607081
}